; Function Attrs: mustprogress nofree norecurse nosync nounwind willreturn memory(readwrite, argmem: write, inaccessiblemem: none) uwtable
define hidden void @_ZN12HotSpotJVMCI19HotSpotConstantPool22set_constantPoolHandleEP8JVMCIEnvP7oopDescl(ptr nocapture noundef readnone %0, ptr noundef %1, i64 noundef %2) local_unnamed_addr #7 align 2 {
  %4 = load i32, ptr @_ZN12HotSpotJVMCI19HotSpotConstantPool26_constantPoolHandle_offsetE, align 4
  %5 = ptrtoint ptr %1 to i64
  %6 = sext i32 %4 to i64
  %7 = add nsw i64 %6, %5
  %8 = inttoptr i64 %7 to ptr
  store i64 %2, ptr %8, align 8
  ret void
}